target datalayout = "e-m:e-p270:32:32-p271:32:32-p272:64:64-i64:64-i128:128-f80:128-n8:16:32:64-S128"
target triple = "x86_64-pc-linux-gnu"

%struct.expireScanData = type { ptr, i64, i64, i64, i64, i32 }

; Function Attrs: nounwind uwtable
define dso_local void @expireScanCallback(ptr noundef %0, ptr noundef %1) #0 {
  %3 = alloca ptr, align 8
  %4 = alloca ptr, align 8
  %5 = alloca ptr, align 8
  %6 = alloca ptr, align 8
  %7 = alloca i64, align 8
  store ptr %0, ptr %3, align 8, !tbaa !25
  store ptr %1, ptr %4, align 8, !tbaa !10
  call void @llvm.lifetime.start.p0(i64 8, ptr %5) #8
  %8 = load ptr, ptr %4, align 8, !tbaa !10
  store ptr %8, ptr %5, align 8, !tbaa !10
  call void @llvm.lifetime.start.p0(i64 8, ptr %6) #8
  %9 = load ptr, ptr %3, align 8, !tbaa !25
  store ptr %9, ptr %6, align 8, !tbaa !25
  call void @llvm.lifetime.start.p0(i64 8, ptr %7) #8
  %10 = load ptr, ptr %5, align 8, !tbaa !10
  %11 = call i64 @dictGetSignedIntegerVal(ptr noundef %10)
  %12 = load ptr, ptr %6, align 8, !tbaa !25
  %13 = getelementptr inbounds nuw %struct.expireScanData, ptr %12, i32 0, i32 1
  %14 = load i64, ptr %13, align 8, !tbaa !26
  %15 = sub nsw i64 %11, %14
  store i64 %15, ptr %7, align 8, !tbaa !12
  %16 = load ptr, ptr %6, align 8, !tbaa !25
  %17 = getelementptr inbounds nuw %struct.expireScanData, ptr %16, i32 0, i32 0
  %18 = load ptr, ptr %17, align 8, !tbaa !28
  %19 = load ptr, ptr %5, align 8, !tbaa !10
  %20 = load ptr, ptr %6, align 8, !tbaa !25
  %21 = getelementptr inbounds nuw %struct.expireScanData, ptr %20, i32 0, i32 1
  %22 = load i64, ptr %21, align 8, !tbaa !26
  %23 = call i32 @activeExpireCycleTryExpire(ptr noundef %18, ptr noundef %19, i64 noundef %22)
  %24 = icmp ne i32 %23, 0
  br i1 %24, label %25, label %30

25:                                               ; preds = %2
  %26 = load ptr, ptr %6, align 8, !tbaa !25
  %27 = getelementptr inbounds nuw %struct.expireScanData, ptr %26, i32 0, i32 3
  %28 = load i64, ptr %27, align 8, !tbaa !29
  %29 = add i64 %28, 1
  store i64 %29, ptr %27, align 8, !tbaa !29
  br label %30

30:                                               ; preds = %25, %2
  %31 = load i64, ptr %7, align 8, !tbaa !12
  %32 = icmp sgt i64 %31, 0
  br i1 %32, label %33, label %43

33:                                               ; preds = %30
  %34 = load i64, ptr %7, align 8, !tbaa !12
  %35 = load ptr, ptr %6, align 8, !tbaa !25
  %36 = getelementptr inbounds nuw %struct.expireScanData, ptr %35, i32 0, i32 4
  %37 = load i64, ptr %36, align 8, !tbaa !30
  %38 = add nsw i64 %37, %34
  store i64 %38, ptr %36, align 8, !tbaa !30
  %39 = load ptr, ptr %6, align 8, !tbaa !25
  %40 = getelementptr inbounds nuw %struct.expireScanData, ptr %39, i32 0, i32 5
  %41 = load i32, ptr %40, align 8, !tbaa !31
  %42 = add nsw i32 %41, 1
  store i32 %42, ptr %40, align 8, !tbaa !31
  br label %43

43:                                               ; preds = %33, %30
  %44 = load ptr, ptr %6, align 8, !tbaa !25
  %45 = getelementptr inbounds nuw %struct.expireScanData, ptr %44, i32 0, i32 2
  %46 = load i64, ptr %45, align 8, !tbaa !32
  %47 = add i64 %46, 1
  store i64 %47, ptr %45, align 8, !tbaa !32
  call void @llvm.lifetime.end.p0(i64 8, ptr %7) #8
  call void @llvm.lifetime.end.p0(i64 8, ptr %6) #8
  call void @llvm.lifetime.end.p0(i64 8, ptr %5) #8
  ret void
}