; Function Attrs: nounwind uwtable
define dso_local void @expireScanCallback(ptr noundef captures(none) %0, ptr noundef %1) #0 {
  %3 = tail call i64 @dictGetSignedIntegerVal(ptr noundef %1) #10
  %4 = getelementptr inbounds nuw i8, ptr %0, i64 8
  %5 = load i64, ptr %4, align 8, !tbaa !14
  %6 = sub nsw i64 %3, %5
  %7 = load ptr, ptr %0, align 8, !tbaa !19
  %8 = tail call i32 @activeExpireCycleTryExpire(ptr noundef %7, ptr noundef %1, i64 noundef %5)
  %.not = icmp eq i32 %8, 0
  br i1 %.not, label %13, label %9

9:                                                ; preds = %2
  %10 = getelementptr inbounds nuw i8, ptr %0, i64 24
  %11 = load i64, ptr %10, align 8, !tbaa !20
  %12 = add i64 %11, 1
  store i64 %12, ptr %10, align 8, !tbaa !20
  br label %13

13:                                               ; preds = %9, %2
  %14 = icmp sgt i64 %6, 0
  br i1 %14, label %15, label %22

15:                                               ; preds = %13
  %16 = getelementptr inbounds nuw i8, ptr %0, i64 32
  %17 = load i64, ptr %16, align 8, !tbaa !21
  %18 = add nsw i64 %17, %6
  store i64 %18, ptr %16, align 8, !tbaa !21
  %19 = getelementptr inbounds nuw i8, ptr %0, i64 40
  %20 = load i32, ptr %19, align 8, !tbaa !22
  %21 = add nsw i32 %20, 1
  store i32 %21, ptr %19, align 8, !tbaa !22
  br label %22

22:                                               ; preds = %15, %13
  %23 = getelementptr inbounds nuw i8, ptr %0, i64 16
  %24 = load i64, ptr %23, align 8, !tbaa !23
  %25 = add i64 %24, 1
  store i64 %25, ptr %23, align 8, !tbaa !23
  ret void
}